target datalayout = "e-m:e-p270:32:32-p271:32:32-p272:64:64-i64:64-i128:128-f80:128-n8:16:32:64-S128"
target triple = "x86_64-pc-linux-gnu"

; Function Attrs: inlinehint mustprogress nounwind uwtable
define linkonce_odr noundef float @_ZSt4sqrtf(float noundef %0) #9 comdat {
  %2 = alloca float, align 4
  store float %0, ptr %2, align 4, !tbaa !99
  %3 = load float, ptr %2, align 4, !tbaa !99
  %4 = call float @sqrtf(float noundef %3) #3, !tbaa !111
  ret float %4
}

; Function Attrs: inlinehint mustprogress nounwind uwtable
define linkonce_odr noundef float @_ZSt5atan2ff(float noundef %0, float noundef %1) #9 comdat {
  %3 = alloca float, align 4
  %4 = alloca float, align 4
  store float %0, ptr %3, align 4, !tbaa !99
  store float %1, ptr %4, align 4, !tbaa !99
  %5 = load float, ptr %3, align 4, !tbaa !99
  %6 = load float, ptr %4, align 4, !tbaa !99
  %7 = call float @atan2f(float noundef %5, float noundef %6) #3, !tbaa !111
  ret float %7
}

; Function Attrs: inlinehint mustprogress nounwind uwtable
define internal noundef float @_ZL5iprodPKfS0_(ptr noundef %0, ptr noundef %1) #9 {
  %3 = alloca ptr, align 8
  %4 = alloca ptr, align 8
  store ptr %0, ptr %3, align 8, !tbaa !279
  store ptr %1, ptr %4, align 8, !tbaa !279
  %5 = load ptr, ptr %3, align 8, !tbaa !279
  %6 = getelementptr inbounds float, ptr %5, i64 0
  %7 = load float, ptr %6, align 4, !tbaa !99
  %8 = load ptr, ptr %4, align 8, !tbaa !279
  %9 = getelementptr inbounds float, ptr %8, i64 0
  %10 = load float, ptr %9, align 4, !tbaa !99
  %11 = load ptr, ptr %3, align 8, !tbaa !279
  %12 = getelementptr inbounds float, ptr %11, i64 1
  %13 = load float, ptr %12, align 4, !tbaa !99
  %14 = load ptr, ptr %4, align 8, !tbaa !279
  %15 = getelementptr inbounds float, ptr %14, i64 1
  %16 = load float, ptr %15, align 4, !tbaa !99
  %17 = fmul float %13, %16
  %18 = call float @llvm.fmuladd.f32(float %7, float %10, float %17)
  %19 = load ptr, ptr %3, align 8, !tbaa !279
  %20 = getelementptr inbounds float, ptr %19, i64 2
  %21 = load float, ptr %20, align 4, !tbaa !99
  %22 = load ptr, ptr %4, align 8, !tbaa !279
  %23 = getelementptr inbounds float, ptr %22, i64 2
  %24 = load float, ptr %23, align 4, !tbaa !99
  %25 = call float @llvm.fmuladd.f32(float %21, float %24, float %18)
  ret float %25
}

; Function Attrs: inlinehint mustprogress uwtable
define internal noundef float @_ZL4normPKf(ptr noundef %0) #11 {
  %2 = alloca ptr, align 8
  store ptr %0, ptr %2, align 8, !tbaa !279
  %3 = load ptr, ptr %2, align 8, !tbaa !279
  %4 = load ptr, ptr %2, align 8, !tbaa !279
  %5 = call noundef float @_ZL5iprodPKfS0_(ptr noundef %3, ptr noundef %4)
  %6 = call noundef float @_ZSt4sqrtf(float noundef %5)
  ret float %6
}

; Function Attrs: inlinehint mustprogress nounwind uwtable
define internal void @_ZL5cprodPKfS0_Pf(ptr noundef %0, ptr noundef %1, ptr noundef %2) #9 {
  %4 = alloca ptr, align 8
  %5 = alloca ptr, align 8
  %6 = alloca ptr, align 8
  store ptr %0, ptr %4, align 8, !tbaa !279
  store ptr %1, ptr %5, align 8, !tbaa !279
  store ptr %2, ptr %6, align 8, !tbaa !279
  %7 = load ptr, ptr %4, align 8, !tbaa !279
  %8 = getelementptr inbounds float, ptr %7, i64 1
  %9 = load float, ptr %8, align 4, !tbaa !99
  %10 = load ptr, ptr %5, align 8, !tbaa !279
  %11 = getelementptr inbounds float, ptr %10, i64 2
  %12 = load float, ptr %11, align 4, !tbaa !99
  %13 = load ptr, ptr %4, align 8, !tbaa !279
  %14 = getelementptr inbounds float, ptr %13, i64 2
  %15 = load float, ptr %14, align 4, !tbaa !99
  %16 = load ptr, ptr %5, align 8, !tbaa !279
  %17 = getelementptr inbounds float, ptr %16, i64 1
  %18 = load float, ptr %17, align 4, !tbaa !99
  %19 = fmul float %15, %18
  %20 = fneg float %19
  %21 = call float @llvm.fmuladd.f32(float %9, float %12, float %20)
  %22 = load ptr, ptr %6, align 8, !tbaa !279
  %23 = getelementptr inbounds float, ptr %22, i64 0
  store float %21, ptr %23, align 4, !tbaa !99
  %24 = load ptr, ptr %4, align 8, !tbaa !279
  %25 = getelementptr inbounds float, ptr %24, i64 2
  %26 = load float, ptr %25, align 4, !tbaa !99
  %27 = load ptr, ptr %5, align 8, !tbaa !279
  %28 = getelementptr inbounds float, ptr %27, i64 0
  %29 = load float, ptr %28, align 4, !tbaa !99
  %30 = load ptr, ptr %4, align 8, !tbaa !279
  %31 = getelementptr inbounds float, ptr %30, i64 0
  %32 = load float, ptr %31, align 4, !tbaa !99
  %33 = load ptr, ptr %5, align 8, !tbaa !279
  %34 = getelementptr inbounds float, ptr %33, i64 2
  %35 = load float, ptr %34, align 4, !tbaa !99
  %36 = fmul float %32, %35
  %37 = fneg float %36
  %38 = call float @llvm.fmuladd.f32(float %26, float %29, float %37)
  %39 = load ptr, ptr %6, align 8, !tbaa !279
  %40 = getelementptr inbounds float, ptr %39, i64 1
  store float %38, ptr %40, align 4, !tbaa !99
  %41 = load ptr, ptr %4, align 8, !tbaa !279
  %42 = getelementptr inbounds float, ptr %41, i64 0
  %43 = load float, ptr %42, align 4, !tbaa !99
  %44 = load ptr, ptr %5, align 8, !tbaa !279
  %45 = getelementptr inbounds float, ptr %44, i64 1
  %46 = load float, ptr %45, align 4, !tbaa !99
  %47 = load ptr, ptr %4, align 8, !tbaa !279
  %48 = getelementptr inbounds float, ptr %47, i64 1
  %49 = load float, ptr %48, align 4, !tbaa !99
  %50 = load ptr, ptr %5, align 8, !tbaa !279
  %51 = getelementptr inbounds float, ptr %50, i64 0
  %52 = load float, ptr %51, align 4, !tbaa !99
  %53 = fmul float %49, %52
  %54 = fneg float %53
  %55 = call float @llvm.fmuladd.f32(float %43, float %46, float %54)
  %56 = load ptr, ptr %6, align 8, !tbaa !279
  %57 = getelementptr inbounds float, ptr %56, i64 2
  store float %55, ptr %57, align 4, !tbaa !99
  ret void
}

; Function Attrs: inlinehint mustprogress uwtable
define internal noundef float @_ZL9gmx_anglePKfS0_(ptr noundef %0, ptr noundef %1) #11 {
  %3 = alloca ptr, align 8
  %4 = alloca ptr, align 8
  %5 = alloca [3 x float], align 4
  %6 = alloca float, align 4
  %7 = alloca float, align 4
  store ptr %0, ptr %3, align 8, !tbaa !279
  store ptr %1, ptr %4, align 8, !tbaa !279
  call void @llvm.lifetime.start.p0(i64 12, ptr %5) #3
  call void @llvm.lifetime.start.p0(i64 4, ptr %6) #3
  call void @llvm.lifetime.start.p0(i64 4, ptr %7) #3
  %8 = load ptr, ptr %3, align 8, !tbaa !279
  %9 = load ptr, ptr %4, align 8, !tbaa !279
  %10 = getelementptr inbounds [3 x float], ptr %5, i64 0, i64 0
  call void @_ZL5cprodPKfS0_Pf(ptr noundef %8, ptr noundef %9, ptr noundef %10)
  %11 = getelementptr inbounds [3 x float], ptr %5, i64 0, i64 0
  %12 = call noundef float @_ZL4normPKf(ptr noundef %11)
  store float %12, ptr %6, align 4, !tbaa !99
  %13 = load ptr, ptr %3, align 8, !tbaa !279
  %14 = load ptr, ptr %4, align 8, !tbaa !279
  %15 = call noundef float @_ZL5iprodPKfS0_(ptr noundef %13, ptr noundef %14)
  store float %15, ptr %7, align 4, !tbaa !99
  %16 = load float, ptr %6, align 4, !tbaa !99
  %17 = load float, ptr %7, align 4, !tbaa !99
  %18 = call noundef float @_ZSt5atan2ff(float noundef %16, float noundef %17)
  call void @llvm.lifetime.end.p0(i64 4, ptr %7) #3
  call void @llvm.lifetime.end.p0(i64 4, ptr %6) #3
  call void @llvm.lifetime.end.p0(i64 12, ptr %5) #3
  ret float %18
}