; Function Attrs: inlinehint mustprogress nofree nounwind willreturn memory(write, argmem: readwrite) uwtable
define internal fastcc noundef float @_ZL9gmx_anglePKfS0_(ptr noundef nonnull readonly captures(none) %0, ptr noundef nonnull readonly captures(none) %1) unnamed_addr #23 {
  %3 = getelementptr inbounds nuw i8, ptr %0, i64 4
  %4 = load float, ptr %3, align 4, !tbaa !149
  %5 = getelementptr inbounds nuw i8, ptr %1, i64 8
  %6 = load float, ptr %5, align 4, !tbaa !149
  %7 = getelementptr inbounds nuw i8, ptr %0, i64 8
  %8 = load float, ptr %7, align 4, !tbaa !149
  %9 = getelementptr inbounds nuw i8, ptr %1, i64 4
  %10 = load float, ptr %9, align 4, !tbaa !149
  %11 = fneg float %10
  %12 = fmul float %8, %11
  %13 = tail call float @llvm.fmuladd.f32(float %4, float %6, float %12)
  %14 = load float, ptr %1, align 4, !tbaa !149
  %15 = load float, ptr %0, align 4, !tbaa !149
  %16 = fneg float %6
  %17 = fmul float %15, %16
  %18 = tail call float @llvm.fmuladd.f32(float %8, float %14, float %17)
  %19 = fneg float %14
  %20 = fmul float %4, %19
  %21 = tail call float @llvm.fmuladd.f32(float %15, float %10, float %20)
  %22 = fmul float %18, %18
  %23 = tail call float @llvm.fmuladd.f32(float %13, float %13, float %22)
  %24 = tail call noundef float @llvm.fmuladd.f32(float %21, float %21, float %23)
  %sqrt.i = tail call noundef float @llvm.sqrt.f32(float %24)
  %25 = fmul float %4, %10
  %26 = tail call float @llvm.fmuladd.f32(float %15, float %14, float %25)
  %27 = tail call noundef float @llvm.fmuladd.f32(float %8, float %6, float %26)
  %28 = tail call noundef float @atan2f(float noundef %sqrt.i, float noundef %27) #31, !tbaa !161
  ret float %28
}